; Function Attrs: mustprogress nofree nounwind willreturn memory(readwrite, inaccessiblemem: write) uwtable
define void @_ZN2cv16structured_light20GrayCodePattern_ImplC2ERKNS0_15GrayCodePattern6ParamsE(ptr nocapture noundef nonnull align 8 dereferenceable(56) %0, ptr nocapture noundef readonly %1, ptr nocapture noundef nonnull readonly align 4 dereferenceable(8) %2) unnamed_addr #4 align 2 personality ptr @__gxx_personality_v0 {
  %4 = getelementptr inbounds i8, ptr %1, i64 8
  %5 = getelementptr inbounds i8, ptr %1, i64 16
  %6 = load ptr, ptr %5, align 8
  store ptr %6, ptr %0, align 8
  %7 = getelementptr inbounds i8, ptr %1, i64 24
  %8 = load ptr, ptr %7, align 8
  %9 = getelementptr i8, ptr %6, i64 -80
  %10 = load i64, ptr %9, align 8
  %11 = getelementptr inbounds i8, ptr %0, i64 %10
  store ptr %8, ptr %11, align 8
  %12 = load ptr, ptr %4, align 8
  store ptr %12, ptr %0, align 8
  %13 = getelementptr inbounds i8, ptr %1, i64 32
  %14 = load ptr, ptr %13, align 8
  %15 = getelementptr i8, ptr %12, i64 -80
  %16 = load i64, ptr %15, align 8
  %17 = getelementptr inbounds i8, ptr %0, i64 %16
  store ptr %14, ptr %17, align 8
  %18 = load ptr, ptr %1, align 8
  store ptr %18, ptr %0, align 8
  %19 = getelementptr inbounds i8, ptr %1, i64 40
  %20 = load ptr, ptr %19, align 8
  %21 = getelementptr i8, ptr %18, i64 -80
  %22 = load i64, ptr %21, align 8
  %23 = getelementptr inbounds i8, ptr %0, i64 %22
  store ptr %20, ptr %23, align 8
  %24 = getelementptr inbounds i8, ptr %0, i64 8
  %25 = load i64, ptr %2, align 4
  store i64 %25, ptr %24, align 8
  %26 = trunc i64 %25 to i32
  %27 = sitofp i32 %26 to double
  %28 = tail call double @log(double noundef %27) #25
  %29 = fdiv double %28, 0x3FE62E42FEFA39EF
  %30 = tail call double @llvm.ceil.f64(double %29)
  %31 = fptoui double %30 to i64
  %32 = getelementptr inbounds i8, ptr %0, i64 32
  store i64 %31, ptr %32, align 8
  %33 = getelementptr inbounds i8, ptr %0, i64 12
  %34 = load i32, ptr %33, align 4
  %35 = sitofp i32 %34 to double
  %36 = tail call double @log(double noundef %35) #25
  %37 = fdiv double %36, 0x3FE62E42FEFA39EF
  %38 = tail call double @llvm.ceil.f64(double %37)
  %39 = fptoui double %38 to i64
  %40 = getelementptr inbounds i8, ptr %0, i64 24
  store i64 %39, ptr %40, align 8
  %41 = load i64, ptr %32, align 8
  %42 = add i64 %41, %39
  %43 = shl i64 %42, 1
  %44 = getelementptr inbounds i8, ptr %0, i64 16
  store i64 %43, ptr %44, align 8
  %45 = getelementptr inbounds i8, ptr %0, i64 40
  store i64 40, ptr %45, align 8
  %46 = getelementptr inbounds i8, ptr %0, i64 48
  store i64 5, ptr %46, align 8
  ret void
}